   1              		.cpu cortex-m4
   2              		.arch armv7e-m
   3              		.fpu softvfp
   4              		.eabi_attribute 20, 1
   5              		.eabi_attribute 21, 1
   6              		.eabi_attribute 23, 3
   7              		.eabi_attribute 24, 1
   8              		.eabi_attribute 25, 1
   9              		.eabi_attribute 26, 1
  10              		.eabi_attribute 30, 4
  11              		.eabi_attribute 34, 1
  12              		.eabi_attribute 18, 4
  13              		.file	"network.c"
  14              		.text
  15              	.Ltext0:
  16              		.cfi_sections	.debug_frame
  17              		.file 1 "network.c"
  18              		.section	.text.network_forward,"ax",%progbits
  19              		.align	1
  20              		.global	network_forward
  21              		.syntax unified
  22              		.thumb
  23              		.thumb_func
  25              	network_forward:
  26              	.LVL0:
  27              	.LFB0:
   1:network.c     **** #include "network_config.h"
   2:network.c     **** #include <stdint.h>
   3:network.c     **** 
   4:network.c     **** /*
   5:network.c     **** 110100010000001
   6:network.c     **** 010100010000010
   7:network.c     **** 100000000000011
   8:network.c     **** 100100010000100
   9:network.c     **** 010000000000101
  10:network.c     **** 110000000000110
  11:network.c     **** 000100010000111
  12:network.c     **** 000100010001000
  13:network.c     **** 110000000001001
  14:network.c     **** 010000000001010
  15:network.c     **** 100100010001011
  16:network.c     **** 100000000001100
  17:network.c     **** 010100010001101
  18:network.c     **** 110100010001110
  19:network.c     **** 
  20:network.c     **** */
  21:network.c     **** 
  22:network.c     **** 
  23:network.c     **** #define NOP_SLED_100() do { \
  24:network.c     ****     for(int i=0; i<100; i++) { __asm__ __volatile__ ("nop"); } \
  25:network.c     **** } while(0)
  26:network.c     **** 
  27:network.c     **** 
  28:network.c     **** #define NOP_SLED_50() do { \
  29:network.c     ****     for(int i=0; i<30; i++) { __asm__ __volatile__ ("nop"); } \
  30:network.c     **** } while(0)
  31:network.c     **** 
  32:network.c     **** /**
  33:network.c     ****  * Procedural Forward Pass
  34:network.c     ****  * Iterates through layers using a loop to reduce code duplication.
  35:network.c     ****  */
  36:network.c     **** int32_t network_forward(const int8_t input[])
  37:network.c     **** {
  28              		.loc 1 37 1 view -0
  29              		.cfi_startproc
  30              		@ args = 0, pretend = 0, frame = 24
  31              		@ frame_needed = 0, uses_anonymous_args = 0
  38:network.c     ****     // We use two buffers to swap between input and output of layers
  39:network.c     ****     // Layer 1 input is the function argument 'input'
  40:network.c     ****     // Layer 1 output is stored in hidden_q
  41:network.c     ****     int8_t hidden_q[NET_L1];
  32              		.loc 1 41 5 view .LVU1
  42:network.c     ****     
  43:network.c     ****     // Pointer to current input for the active layer loop
  44:network.c     ****     const int8_t* current_input = input;
  33              		.loc 1 44 5 view .LVU2
  37:network.c     ****     // We use two buffers to swap between input and output of layers
  34              		.loc 1 37 1 is_stmt 0 view .LVU3
  35 0000 2DE9F04F 		push	{r4, r5, r6, r7, r8, r9, r10, fp, lr}
  36              	.LCFI0:
  37              		.cfi_def_cfa_offset 36
  38              		.cfi_offset 4, -36
  39              		.cfi_offset 5, -32
  40              		.cfi_offset 6, -28
  41              		.cfi_offset 7, -24
  42              		.cfi_offset 8, -20
  43              		.cfi_offset 9, -16
  44              		.cfi_offset 10, -12
  45              		.cfi_offset 11, -8
  46              		.cfi_offset 14, -4
  47 0004 DFF8E0C0 		ldr	ip, .L17
  48 0008 87B0     		sub	sp, sp, #28
  49              	.LCFI1:
  50              		.cfi_def_cfa_offset 64
  51              	.LBB2:
  52              	.LBB3:
  53              	.LBB4:
  54              	.LBB5:
  45:network.c     ****     int32_t current_input_size = NET_INPUTS;
  46:network.c     ****     
  47:network.c     ****     // We iterate 2 times for 2 layers
  48:network.c     ****     for (int layer = 0; layer < 2; layer++) {
  49:network.c     ****         // NOP_SLED_100();
  50:network.c     ****         for(int n=0; n<20; n++) { __asm__ __volatile__ ("nop"); }
  51:network.c     ****         int num_neurons = (layer == 0) ? NET_L1 : 1;
  52:network.c     ****         
  53:network.c     ****         for (int o = 0; o < num_neurons; o++) {
  54:network.c     ****             int32_t acc = 0;
  55:network.c     ****             
  56:network.c     ****             // 1. Dot Product
  57:network.c     ****             for (int i = 0; i < current_input_size; i++) {
  58:network.c     ****                 // Select weights based on current layer
  59:network.c     ****                 int8_t w = (layer == 0) ? L1_W[o][i] : L2_W[o][i];
  60:network.c     ****                 // NOP_SLED_50();
  61:network.c     ****                 acc += (int32_t)current_input[i] * w;
  62:network.c     ****                 // NOP_SLED_50();
  63:network.c     ****             }
  64:network.c     **** 
  65:network.c     ****             // 2. Add Bias and Scale
  66:network.c     ****             int32_t bias = (layer == 0) ? L1_B[o] : L2_B[o];
  67:network.c     ****             int32_t m0   = (layer == 0) ? L1_M0[o] : L2_M0[o];
  55              		.loc 1 67 52 discriminator 1 view .LVU4
  56 000a ACF13003 		sub	r3, ip, #48
  57 000e 0293     		str	r3, [sp, #8]
  68:network.c     ****             int32_t n    = (layer == 0) ? L1_N[o] : L2_N[o];
  58              		.loc 1 68 51 discriminator 1 view .LVU5
  59 0010 ACF11803 		sub	r3, ip, #24
  60              	.LBE5:
  61              	.LBE4:
  62              	.LBE3:
  63              	.LBE2:
  37:network.c     ****     // We use two buffers to swap between input and output of layers
  64              		.loc 1 37 1 view .LVU6
  65 0014 0746     		mov	r7, r0
  66              	.LVL1:
  45:network.c     ****     int32_t current_input_size = NET_INPUTS;
  67              		.loc 1 45 5 is_stmt 1 view .LVU7
  48:network.c     ****         // NOP_SLED_100();
  68              		.loc 1 48 5 view .LVU8
  69              	.LBB21:
  48:network.c     ****         // NOP_SLED_100();
  70              		.loc 1 48 10 view .LVU9
  48:network.c     ****         // NOP_SLED_100();
  71              		.loc 1 48 31 discriminator 1 view .LVU10
  48:network.c     ****         // NOP_SLED_100();
  72              		.loc 1 48 14 is_stmt 0 view .LVU11
  73 0016 0025     		movs	r5, #0
  74              	.LBE21:
  45:network.c     ****     int32_t current_input_size = NET_INPUTS;
  75              		.loc 1 45 13 view .LVU12
  76 0018 4FF00A0A 		mov	r10, #10
  77              	.LBB22:
  78              	.LBB19:
  79              	.LBB15:
  80              	.LBB12:
  81              		.loc 1 68 51 discriminator 1 view .LVU13
  82 001c 0393     		str	r3, [sp, #12]
  83              	.LVL2:
  84              	.L2:
  85              		.loc 1 68 51 discriminator 1 view .LVU14
  86              	.LBE12:
  87              	.LBE15:
  88              	.LBB16:
  50:network.c     ****         int num_neurons = (layer == 0) ? NET_L1 : 1;
  89              		.loc 1 50 23 is_stmt 1 discriminator 1 view .LVU15
  90              	.LBE16:
  91              	.LBE19:
  92              	.LBE22:
  37:network.c     ****     // We use two buffers to swap between input and output of layers
  93              		.loc 1 37 1 is_stmt 0 view .LVU16
  94 001e 1422     		movs	r2, #20
  95              	.LVL3:
  96              	.L3:
  97              	.LBB23:
  98              	.LBB20:
  99              	.LBB17:
  50:network.c     ****         int num_neurons = (layer == 0) ? NET_L1 : 1;
 100              		.loc 1 50 35 is_stmt 1 discriminator 3 view .LVU17
 101              		.syntax unified
 102              	@ 50 "network.c" 1
 103 0020 00BF     		nop
 104              	@ 0 "" 2
  50:network.c     ****         int num_neurons = (layer == 0) ? NET_L1 : 1;
 105              		.loc 1 50 29 discriminator 3 view .LVU18
 106              	.LVL4:
  50:network.c     ****         int num_neurons = (layer == 0) ? NET_L1 : 1;
 107              		.loc 1 50 23 discriminator 1 view .LVU19
 108              		.thumb
 109              		.syntax unified
 110 0022 013A     		subs	r2, r2, #1
 111              	.LVL5:
  50:network.c     ****         int num_neurons = (layer == 0) ? NET_L1 : 1;
 112              		.loc 1 50 23 is_stmt 0 discriminator 1 view .LVU20
 113 0024 FCD1     		bne	.L3
 114              	.LBE17:
  51:network.c     ****         
 115              		.loc 1 51 9 is_stmt 1 view .LVU21
  51:network.c     ****         
 116              		.loc 1 51 49 is_stmt 0 discriminator 1 view .LVU22
 117 0026 002D     		cmp	r5, #0
 118 0028 14BF     		ite	ne
 119 002a 2B46     		movne	r3, r5
 120 002c 0623     		moveq	r3, #6
 121 002e DFF8BCE0 		ldr	lr, .L17+4
 122 0032 0193     		str	r3, [sp, #4]
 123              	.LVL6:
  53:network.c     ****             int32_t acc = 0;
 124              		.loc 1 53 9 is_stmt 1 view .LVU23
 125              	.LBB18:
  53:network.c     ****             int32_t acc = 0;
 126              		.loc 1 53 14 view .LVU24
  53:network.c     ****             int32_t acc = 0;
 127              		.loc 1 53 27 discriminator 1 view .LVU25
 128 0034 0DF1100B 		add	fp, sp, #16
 129              	.LBB13:
  69:network.c     ****             
  70:network.c     ****             acc += bias;
  71:network.c     **** 
  72:network.c     ****             // 3. Fixed-point multiplication with rounding
  73:network.c     ****             int64_t temp = (int64_t)acc * m0;
  74:network.c     ****             temp += (1LL << (31 + n - 1));
 130              		.loc 1 74 26 is_stmt 0 view .LVU26
 131 0038 4FF00108 		mov	r8, #1
 132              	.LVL7:
 133              	.L5:
 134              	.LBB6:
  57:network.c     ****                 // Select weights based on current layer
 135              		.loc 1 57 31 is_stmt 1 discriminator 1 view .LVU27
 136 003c 0623     		movs	r3, #6
 137 003e 03FB02C0 		mla	r0, r3, r2, ip
  57:network.c     ****                 // Select weights based on current layer
 138              		.loc 1 57 22 is_stmt 0 view .LVU28
 139 0042 0023     		movs	r3, #0
 140              	.LBE6:
  54:network.c     ****             
 141              		.loc 1 54 21 view .LVU29
 142 0044 1C46     		mov	r4, r3
 143              	.LVL8:
 144              	.L8:
 145              	.LBB10:
 146              	.LBB7:
  59:network.c     ****                 // NOP_SLED_50();
 147              		.loc 1 59 17 is_stmt 1 view .LVU30
  59:network.c     ****                 // NOP_SLED_50();
 148              		.loc 1 59 24 is_stmt 0 view .LVU31
 149 0046 002D     		cmp	r5, #0
 150 0048 43D1     		bne	.L6
  59:network.c     ****                 // NOP_SLED_50();
 151              		.loc 1 59 24 discriminator 1 view .LVU32
 152 004a 1EF90310 		ldrsb	r1, [lr, r3]
 153              	.L7:
 154              	.LVL9:
  61:network.c     ****                 // NOP_SLED_50();
 155              		.loc 1 61 17 is_stmt 1 view .LVU33
  61:network.c     ****                 // NOP_SLED_50();
 156              		.loc 1 61 21 is_stmt 0 view .LVU34
 157 004e FE56     		ldrsb	r6, [r7, r3]
 158              	.LBE7:
  57:network.c     ****                 // Select weights based on current layer
 159              		.loc 1 57 54 discriminator 2 view .LVU35
 160 0050 0133     		adds	r3, r3, #1
 161              	.LVL10:
  57:network.c     ****                 // Select weights based on current layer
 162              		.loc 1 57 31 discriminator 1 view .LVU36
 163 0052 5345     		cmp	r3, r10
 164              	.LBB8:
  61:network.c     ****                 // NOP_SLED_50();
 165              		.loc 1 61 21 view .LVU37
 166 0054 16FB0144 		smlabb	r4, r6, r1, r4
 167              	.LVL11:
  61:network.c     ****                 // NOP_SLED_50();
 168              		.loc 1 61 21 view .LVU38
 169              	.LBE8:
  57:network.c     ****                 // Select weights based on current layer
 170              		.loc 1 57 54 is_stmt 1 discriminator 2 view .LVU39
  57:network.c     ****                 // Select weights based on current layer
 171              		.loc 1 57 31 discriminator 1 view .LVU40
 172 0058 F5D1     		bne	.L8
 173              	.LBE10:
  66:network.c     ****             int32_t m0   = (layer == 0) ? L1_M0[o] : L2_M0[o];
 174              		.loc 1 66 13 view .LVU41
  66:network.c     ****             int32_t m0   = (layer == 0) ? L1_M0[o] : L2_M0[o];
 175              		.loc 1 66 51 is_stmt 0 view .LVU42
 176 005a 002D     		cmp	r5, #0
 177 005c 3BD1     		bne	.L13
  66:network.c     ****             int32_t m0   = (layer == 0) ? L1_M0[o] : L2_M0[o];
 178              		.loc 1 66 51 discriminator 1 view .LVU43
 179 005e 244B     		ldr	r3, .L17+8
 180              	.LVL12:
  66:network.c     ****             int32_t m0   = (layer == 0) ? L1_M0[o] : L2_M0[o];
 181              		.loc 1 66 51 discriminator 1 view .LVU44
 182 0060 53F82260 		ldr	r6, [r3, r2, lsl #2]
 183              	.LVL13:
  67:network.c     ****             int32_t n    = (layer == 0) ? L1_N[o] : L2_N[o];
 184              		.loc 1 67 13 is_stmt 1 view .LVU45
  67:network.c     ****             int32_t n    = (layer == 0) ? L1_N[o] : L2_N[o];
 185              		.loc 1 67 52 is_stmt 0 discriminator 1 view .LVU46
 186 0064 029B     		ldr	r3, [sp, #8]
 187 0066 53F82200 		ldr	r0, [r3, r2, lsl #2]
 188              	.LVL14:
  68:network.c     ****             
 189              		.loc 1 68 13 is_stmt 1 view .LVU47
  68:network.c     ****             
 190              		.loc 1 68 51 is_stmt 0 discriminator 1 view .LVU48
 191 006a 039B     		ldr	r3, [sp, #12]
 192 006c 53F82210 		ldr	r1, [r3, r2, lsl #2]
 193              	.LVL15:
 194              	.L9:
  70:network.c     **** 
 195              		.loc 1 70 13 is_stmt 1 view .LVU49
  73:network.c     ****             temp += (1LL << (31 + n - 1));
 196              		.loc 1 73 13 view .LVU50
 197              		.loc 1 74 13 view .LVU51
  75:network.c     ****             int32_t activation = (int32_t)(temp >> (31 + n));
 198              		.loc 1 75 13 view .LVU52
  70:network.c     **** 
 199              		.loc 1 70 17 is_stmt 0 view .LVU53
 200 0070 2644     		add	r6, r6, r4
 201              	.LVL16:
  74:network.c     ****             int32_t activation = (int32_t)(temp >> (31 + n));
 202              		.loc 1 74 26 view .LVU54
 203 0072 A1F10209 		sub	r9, r1, #2
 204 0076 C1F10204 		rsb	r4, r1, #2
  74:network.c     ****             int32_t activation = (int32_t)(temp >> (31 + n));
 205              		.loc 1 74 37 view .LVU55
 206 007a 01F11E03 		add	r3, r1, #30
  74:network.c     ****             int32_t activation = (int32_t)(temp >> (31 + n));
 207              		.loc 1 74 26 view .LVU56
 208 007e 08FA09F9 		lsl	r9, r8, r9
 209 0082 28FA04F4 		lsr	r4, r8, r4
 210 0086 49EA0404 		orr	r4, r9, r4
 211 008a 08FA03F3 		lsl	r3, r8, r3
  74:network.c     ****             int32_t activation = (int32_t)(temp >> (31 + n));
 212              		.loc 1 74 18 view .LVU57
 213 008e C6FB0034 		smlal	r3, r4, r6, r0
 214              		.loc 1 75 56 view .LVU58
 215 0092 01F11F00 		add	r0, r1, #31
 216              		.loc 1 75 49 view .LVU59
 217 0096 C1F10101 		rsb	r1, r1, #1
 218 009a B0F12006 		subs	r6, r0, #32
 219              	.LVL17:
 220              		.loc 1 75 49 view .LVU60
 221 009e 04FA01F1 		lsl	r1, r4, r1
 222 00a2 23FA00F0 		lsr	r0, r3, r0
 223 00a6 40EA0100 		orr	r0, r0, r1
 224 00aa 5CBF     		itt	pl
 225 00ac 44FA06F6 		asrpl	r6, r4, r6
 226 00b0 3043     		orrpl	r0, r0, r6
 227              	.LVL18:
  76:network.c     **** 
  77:network.c     ****             // 4. Layer Specific Logic (ReLU for hidden, identity for output)
  78:network.c     ****             if (layer == 0) {
 228              		.loc 1 78 13 is_stmt 1 view .LVU61
 229              		.loc 1 78 16 is_stmt 0 view .LVU62
 230 00b2 B5B9     		cbnz	r5, .L1
  79:network.c     ****                 // Clamp to 3-bit/4-bit range [0, 7]
  80:network.c     ****                 if (activation < 0) activation = 0;
 231              		.loc 1 80 17 is_stmt 1 view .LVU63
 232              	.LVL19:
  81:network.c     ****                 if (activation > 7) activation = 7;
  82:network.c     ****                 hidden_q[o] = (int8_t)activation;
 233              		.loc 1 82 17 view .LVU64
  80:network.c     ****                 if (activation > 7) activation = 7;
 234              		.loc 1 80 20 is_stmt 0 view .LVU65
 235 00b4 80F30303 		usat	r3, #3, r0
 236              	.LVL20:
 237              		.loc 1 82 31 view .LVU66
 238 00b8 0BF8013B 		strb	r3, [fp], #1
 239              	.LBE13:
  53:network.c     ****             int32_t acc = 0;
 240              		.loc 1 53 43 is_stmt 1 discriminator 2 view .LVU67
  53:network.c     ****             int32_t acc = 0;
 241              		.loc 1 53 27 is_stmt 0 discriminator 1 view .LVU68
 242 00bc 019B     		ldr	r3, [sp, #4]
 243              	.LVL21:
  53:network.c     ****             int32_t acc = 0;
 244              		.loc 1 53 43 discriminator 2 view .LVU69
 245 00be 0132     		adds	r2, r2, #1
 246              	.LVL22:
  53:network.c     ****             int32_t acc = 0;
 247              		.loc 1 53 27 is_stmt 1 discriminator 1 view .LVU70
 248 00c0 9342     		cmp	r3, r2
 249 00c2 0EF10A0E 		add	lr, lr, #10
 250 00c6 B9D1     		bne	.L5
 251 00c8 0125     		movs	r5, #1
 252              	.LVL23:
  53:network.c     ****             int32_t acc = 0;
 253              		.loc 1 53 27 is_stmt 0 discriminator 1 view .LVU71
 254 00ca 4FF0060A 		mov	r10, #6
 255              	.LVL24:
  53:network.c     ****             int32_t acc = 0;
 256              		.loc 1 53 27 discriminator 1 view .LVU72
 257 00ce 04AF     		add	r7, sp, #16
 258              	.LVL25:
  53:network.c     ****             int32_t acc = 0;
 259              		.loc 1 53 27 discriminator 1 view .LVU73
 260 00d0 A5E7     		b	.L2
 261              	.LVL26:
 262              	.L6:
 263              	.LBB14:
 264              	.LBB11:
 265              	.LBB9:
  59:network.c     ****                 // NOP_SLED_50();
 266              		.loc 1 59 24 discriminator 2 view .LVU74
 267 00d2 C156     		ldrsb	r1, [r0, r3]
 268 00d4 BBE7     		b	.L7
 269              	.LVL27:
 270              	.L13:
  59:network.c     ****                 // NOP_SLED_50();
 271              		.loc 1 59 24 discriminator 2 view .LVU75
 272              	.LBE9:
 273              	.LBE11:
  67:network.c     ****             int32_t n    = (layer == 0) ? L1_N[o] : L2_N[o];
 274              		.loc 1 67 52 discriminator 2 view .LVU76
 275 00d6 0748     		ldr	r0, .L17+12
  66:network.c     ****             int32_t m0   = (layer == 0) ? L1_M0[o] : L2_M0[o];
 276              		.loc 1 66 51 discriminator 2 view .LVU77
 277 00d8 4FF0FF36 		mov	r6, #-1
  68:network.c     ****             
 278              		.loc 1 68 51 discriminator 2 view .LVU78
 279 00dc 6FF00701 		mvn	r1, #7
 280              	.LVL28:
  68:network.c     ****             
 281              		.loc 1 68 51 discriminator 2 view .LVU79
 282 00e0 C6E7     		b	.L9
 283              	.LVL29:
 284              	.L1:
  68:network.c     ****             
 285              		.loc 1 68 51 discriminator 2 view .LVU80
 286              	.LBE14:
 287              	.LBE18:
 288              	.LBE20:
 289              	.LBE23:
  83:network.c     ****             } else {
  84:network.c     ****                 // Layer 2 is the final logit, return immediately
  85:network.c     ****                 return activation;
  86:network.c     ****             }
  87:network.c     ****             // NOP_SLED_100();
  88:network.c     ****         }
  89:network.c     ****         
  90:network.c     ****         // Prepare for the next layer
  91:network.c     ****         current_input = hidden_q;
  92:network.c     ****         current_input_size = NET_L1;
  93:network.c     ****     }
  94:network.c     **** 
  95:network.c     ****     return 0; // Should not reach here
  96:network.c     **** }...
 290              		.loc 1 96 1 view .LVU81
 291 00e2 07B0     		add	sp, sp, #28
 292              	.LCFI2:
 293              		.cfi_def_cfa_offset 36
 294              		@ sp needed
 295 00e4 BDE8F08F 		pop	{r4, r5, r6, r7, r8, r9, r10, fp, pc}
 296              	.LVL30:
 297              	.L18:
 298              		.loc 1 96 1 view .LVU82
 299              		.align	2
 300              	.L17:
 301 00e8 84000000 		.word	.LANCHOR0+132
 302 00ec 00000000 		.word	.LANCHOR0
 303 00f0 3C000000 		.word	.LANCHOR0+60
 304 00f4 4CFEAE50 		.word	1353645644
 305              		.cfi_endproc
 306              	.LFE0:
 308              		.section	.rodata
 309              		.align	2
 310              		.set	.LANCHOR0,. + 0
 313              	L1_W:
 314 0000 FE04F905 		.ascii	"\376\004\371\005\376\377\002\002\371\004"
 314      FEFF0202 
 314      F904
 315 000a FDF9FBFE 		.ascii	"\375\371\373\376\377\375\002\377\002\377"
 315      FFFD02FF 
 315      02FF
 316 0014 FE05FF05 		.ascii	"\376\005\377\005\003\004\007\004\003\377"
 316      03040704 
 316      03FF
 317 001e 0303FE03 		.ascii	"\003\003\376\003\001\371\374\371\373\373"
 317      01F9FCF9 
 317      FBFB
 318 0028 FFFC04FA 		.ascii	"\377\374\004\372\007\372\004\377\001\377"
 318      07FA04FF 
 318      01FF
 319 0032 01FFFD04 		.ascii	"\001\377\375\004\375\004\376\376\007\373"
 319      FD04FEFE 
 319      07FB
 322              	L1_B:
 323 003c FBFFFFFF 		.word	-5
 324 0040 06000000 		.word	6
 325 0044 08000000 		.word	8
 326 0048 12000000 		.word	18
 327 004c FFFFFFFF 		.word	-1
 328 0050 FDFFFFFF 		.word	-3
 331              	L1_M0:
 332 0054 18D3184B 		.word	1259918104
 333 0058 0EF0F86A 		.word	1794699278
 334 005c 960C0C6F 		.word	1863060630
 335 0060 0104B543 		.word	1135936513
 336 0064 48C5BC49 		.word	1237108040
 337 0068 4BADD155 		.word	1439804747
 340              	L1_N:
 341 006c 04000000 		.word	4
 342 0070 05000000 		.word	5
 343 0074 05000000 		.word	5
 344 0078 05000000 		.word	5
 345 007c 04000000 		.word	4
 346 0080 04000000 		.word	4
 349              	L2_W:
 350 0084 07FCFDFD 		.ascii	"\007\374\375\375\007\006"
 350      0706
 351              		.text
 352              	.Letext0:
 353              		.file 2 "/usr/arm-none-eabi/include/machine/_default_types.h"
 354              		.file 3 "/usr/arm-none-eabi/include/sys/_stdint.h"
 355              		.file 4 "network_config.h"